; Function Attrs: nounwind uwtable
define ptr @l_Lean_Meta_addDefaultInstance___lambda__1(ptr noundef %0, ptr noundef %1, ptr noundef %2, ptr readnone captures(none) %3, ptr noundef %4, ptr noundef %5, ptr noundef %6, ptr noundef %7, ptr noundef %8) local_unnamed_addr #1 {
  %10 = tail call ptr @lean_st_ref_get(ptr noundef %7, ptr noundef %8) #6
  %11 = getelementptr inbounds nuw i8, ptr %10, i64 8
  %12 = load ptr, ptr %11, align 8, !tbaa !9
  %13 = ptrtoint ptr %12 to i64
  %14 = and i64 %13, 1
  %.not = icmp eq i64 %14, 0
  br i1 %.not, label %15, label %lean_inc.exit28

15:                                               ; preds = %9
  %.val.i = load i32, ptr %12, align 4, !tbaa !4
  %16 = icmp sgt i32 %.val.i, 0
  br i1 %16, label %17, label %19, !prof !11

17:                                               ; preds = %15
  %18 = add nuw i32 %.val.i, 1
  store i32 %18, ptr %12, align 4, !tbaa !4
  br label %lean_inc.exit28

19:                                               ; preds = %15
  %.not.i31 = icmp eq i32 %.val.i, 0
  br i1 %.not.i31, label %lean_inc.exit28, label %20

20:                                               ; preds = %19
  tail call void @lean_inc_ref_cold(ptr noundef nonnull %12) #6
  br label %lean_inc.exit28

lean_inc.exit28:                                  ; preds = %20, %19, %17, %9
  %21 = getelementptr inbounds nuw i8, ptr %10, i64 16
  %22 = load ptr, ptr %21, align 8, !tbaa !9
  %23 = ptrtoint ptr %22 to i64
  %24 = and i64 %23, 1
  %.not38 = icmp eq i64 %24, 0
  br i1 %.not38, label %25, label %lean_inc.exit27

25:                                               ; preds = %lean_inc.exit28
  %.val.i32 = load i32, ptr %22, align 4, !tbaa !4
  %26 = icmp sgt i32 %.val.i32, 0
  br i1 %26, label %27, label %29, !prof !11

27:                                               ; preds = %25
  %28 = add nuw i32 %.val.i32, 1
  store i32 %28, ptr %22, align 4, !tbaa !4
  br label %lean_inc.exit27

29:                                               ; preds = %25
  %.not.i33 = icmp eq i32 %.val.i32, 0
  br i1 %.not.i33, label %lean_inc.exit27, label %30

30:                                               ; preds = %29
  tail call void @lean_inc_ref_cold(ptr noundef nonnull %22) #6
  br label %lean_inc.exit27

lean_inc.exit27:                                  ; preds = %30, %29, %27, %lean_inc.exit28
  %31 = ptrtoint ptr %10 to i64
  %32 = and i64 %31, 1
  %.not39 = icmp eq i64 %32, 0
  br i1 %.not39, label %33, label %lean_dec.exit26

33:                                               ; preds = %lean_inc.exit27
  %34 = load i32, ptr %10, align 4, !tbaa !4
  %35 = icmp sgt i32 %34, 1
  br i1 %35, label %36, label %38, !prof !11

36:                                               ; preds = %33
  %37 = add nsw i32 %34, -1
  store i32 %37, ptr %10, align 4, !tbaa !4
  br label %lean_dec.exit26

38:                                               ; preds = %33
  %.not.i = icmp eq i32 %34, 0
  br i1 %.not.i, label %lean_dec.exit26, label %39

39:                                               ; preds = %38
  tail call void @lean_dec_ref_cold(ptr noundef nonnull %10) #6
  br label %lean_dec.exit26

lean_dec.exit26:                                  ; preds = %39, %38, %36, %lean_inc.exit27
  %40 = getelementptr inbounds nuw i8, ptr %12, i64 8
  %41 = load ptr, ptr %40, align 8, !tbaa !9
  %42 = ptrtoint ptr %41 to i64
  %43 = and i64 %42, 1
  %.not40 = icmp eq i64 %43, 0
  br i1 %.not40, label %44, label %lean_inc.exit

44:                                               ; preds = %lean_dec.exit26
  %.val.i35 = load i32, ptr %41, align 4, !tbaa !4
  %45 = icmp sgt i32 %.val.i35, 0
  br i1 %45, label %46, label %48, !prof !11

46:                                               ; preds = %44
  %47 = add nuw i32 %.val.i35, 1
  store i32 %47, ptr %41, align 4, !tbaa !4
  br label %lean_inc.exit

48:                                               ; preds = %44
  %.not.i36 = icmp eq i32 %.val.i35, 0
  br i1 %.not.i36, label %lean_inc.exit, label %49

49:                                               ; preds = %48
  tail call void @lean_inc_ref_cold(ptr noundef nonnull %41) #6
  br label %lean_inc.exit

lean_inc.exit:                                    ; preds = %49, %48, %46, %lean_dec.exit26
  br i1 %.not, label %50, label %lean_dec.exit

50:                                               ; preds = %lean_inc.exit
  %51 = load i32, ptr %12, align 4, !tbaa !4
  %52 = icmp sgt i32 %51, 1
  br i1 %52, label %53, label %55, !prof !11

53:                                               ; preds = %50
  %54 = add nsw i32 %51, -1
  store i32 %54, ptr %12, align 4, !tbaa !4
  br label %lean_dec.exit

55:                                               ; preds = %50
  %.not.i29 = icmp eq i32 %51, 0
  br i1 %.not.i29, label %lean_dec.exit, label %56

56:                                               ; preds = %55
  tail call void @lean_dec_ref_cold(ptr noundef nonnull %12) #6
  br label %lean_dec.exit

lean_dec.exit:                                    ; preds = %56, %55, %53, %lean_inc.exit
  tail call void @lean_inc_heartbeat() #6
  %57 = tail call noalias ptr @mi_malloc_small(i64 noundef 32) #6
  %58 = icmp eq ptr %57, null
  br i1 %58, label %59, label %lean_alloc_ctor.exit

59:                                               ; preds = %lean_dec.exit
  tail call void @lean_internal_panic_out_of_memory() #7
  unreachable

lean_alloc_ctor.exit:                             ; preds = %lean_dec.exit
  %60 = getelementptr inbounds nuw i8, ptr %57, i64 4
  store i32 1, ptr %57, align 4, !tbaa !4
  store i32 196640, ptr %60, align 4
  %61 = getelementptr inbounds nuw i8, ptr %57, i64 8
  store ptr %0, ptr %61, align 8, !tbaa !9
  %62 = getelementptr inbounds nuw i8, ptr %57, i64 16
  store ptr %1, ptr %62, align 8, !tbaa !9
  %63 = getelementptr inbounds nuw i8, ptr %57, i64 24
  store ptr %2, ptr %63, align 8, !tbaa !9
  %64 = load ptr, ptr @l_Lean_Meta_addDefaultInstance___lambda__1___closed__1, align 8, !tbaa !9
  %65 = tail call ptr @l_Lean_PersistentEnvExtension_addEntry___rarg(ptr noundef %64, ptr noundef %41, ptr noundef nonnull %57) #6
  %66 = tail call ptr @l_Lean_setEnv___at_Lean_Meta_setInlineAttribute___spec__2(ptr noundef %65, ptr noundef %4, ptr noundef %5, ptr noundef %6, ptr noundef %7, ptr noundef %22) #6
  ret ptr %66
}